; Function Attrs: nounwind uwtable
define dso_local ptr @lua_getupvalue(ptr noundef %0, i32 noundef %1, i32 noundef %2) local_unnamed_addr #1 {
  %4 = alloca ptr, align 8
  %5 = alloca ptr, align 8
  call void @llvm.lifetime.start.p0(i64 8, ptr nonnull %4) #13
  call void @llvm.lifetime.start.p0(i64 8, ptr nonnull %5) #13
  %6 = icmp sgt i32 %1, 0
  br i1 %6, label %7, label %21

7:                                                ; preds = %3
  %8 = getelementptr inbounds nuw i8, ptr %0, i64 32
  %9 = load ptr, ptr %8, align 8, !tbaa !15
  %10 = zext nneg i32 %1 to i64
  %11 = getelementptr %union.TValue, ptr %9, i64 %10
  %12 = getelementptr i8, ptr %11, i64 -8
  %13 = getelementptr inbounds nuw i8, ptr %0, i64 40
  %14 = load ptr, ptr %13, align 8, !tbaa !14
  %15 = icmp ult ptr %12, %14
  br i1 %15, label %index2adr.exit, label %16

16:                                               ; preds = %7
  %17 = getelementptr inbounds nuw i8, ptr %0, i64 16
  %18 = load i64, ptr %17, align 8, !tbaa !21
  %19 = inttoptr i64 %18 to ptr
  %20 = getelementptr inbounds nuw i8, ptr %19, i64 248
  br label %index2adr.exit

21:                                               ; preds = %3
  %22 = icmp sgt i32 %1, -10000
  br i1 %22, label %23, label %28

23:                                               ; preds = %21
  %24 = getelementptr inbounds nuw i8, ptr %0, i64 40
  %25 = load ptr, ptr %24, align 8, !tbaa !14
  %26 = sext i32 %1 to i64
  %27 = getelementptr inbounds %union.TValue, ptr %25, i64 %26
  br label %index2adr.exit

28:                                               ; preds = %21
  switch i32 %1, label %42 [
    i32 -10002, label %29
    i32 -10000, label %37
  ]

29:                                               ; preds = %28
  %30 = getelementptr inbounds nuw i8, ptr %0, i64 16
  %31 = load i64, ptr %30, align 8, !tbaa !21
  %32 = inttoptr i64 %31 to ptr
  %33 = getelementptr inbounds nuw i8, ptr %32, i64 232
  %34 = getelementptr inbounds nuw i8, ptr %0, i64 72
  %35 = load i64, ptr %34, align 8, !tbaa !24
  %36 = or i64 %35, -1688849860263936
  store i64 %36, ptr %33, align 8, !tbaa !17
  br label %index2adr.exit

37:                                               ; preds = %28
  %38 = getelementptr inbounds nuw i8, ptr %0, i64 16
  %39 = load i64, ptr %38, align 8, !tbaa !21
  %40 = inttoptr i64 %39 to ptr
  %41 = getelementptr inbounds nuw i8, ptr %40, i64 272
  br label %index2adr.exit

42:                                               ; preds = %28
  %43 = getelementptr inbounds nuw i8, ptr %0, i64 32
  %44 = load ptr, ptr %43, align 8, !tbaa !15
  %45 = getelementptr inbounds i8, ptr %44, i64 -16
  %46 = load i64, ptr %45, align 8, !tbaa !17
  %47 = and i64 %46, 140737488355327
  %48 = inttoptr i64 %47 to ptr
  %49 = icmp eq i32 %1, -10001
  br i1 %49, label %50, label %58

50:                                               ; preds = %42
  %51 = getelementptr inbounds nuw i8, ptr %0, i64 16
  %52 = load i64, ptr %51, align 8, !tbaa !21
  %53 = inttoptr i64 %52 to ptr
  %54 = getelementptr inbounds nuw i8, ptr %53, i64 232
  %55 = getelementptr inbounds nuw i8, ptr %48, i64 16
  %56 = load i64, ptr %55, align 8, !tbaa !17
  %57 = or i64 %56, -1688849860263936
  store i64 %57, ptr %54, align 8, !tbaa !17
  br label %index2adr.exit

58:                                               ; preds = %42
  %59 = sub nuw nsw i32 -10002, %1
  %60 = getelementptr inbounds nuw i8, ptr %48, i64 11
  %61 = load i8, ptr %60, align 1, !tbaa !17
  %62 = zext i8 %61 to i32
  %.not.i = icmp samesign ugt i32 %59, %62
  br i1 %.not.i, label %68, label %63

63:                                               ; preds = %58
  %64 = getelementptr inbounds nuw i8, ptr %48, i64 48
  %65 = sub nsw i32 -10003, %1
  %66 = sext i32 %65 to i64
  %67 = getelementptr inbounds [1 x %union.TValue], ptr %64, i64 0, i64 %66
  br label %index2adr.exit

68:                                               ; preds = %58
  %69 = getelementptr inbounds nuw i8, ptr %0, i64 16
  %70 = load i64, ptr %69, align 8, !tbaa !21
  %71 = inttoptr i64 %70 to ptr
  %72 = getelementptr inbounds nuw i8, ptr %71, i64 248
  br label %index2adr.exit

index2adr.exit:                                   ; preds = %7, %16, %23, %29, %37, %50, %63, %68
  %.0.i = phi ptr [ %27, %23 ], [ %33, %29 ], [ %41, %37 ], [ %20, %16 ], [ %12, %7 ], [ %54, %50 ], [ %67, %63 ], [ %72, %68 ]
  %73 = add nsw i32 %2, -1
  %74 = call ptr @lj_debug_uvnamev(ptr noundef %.0.i, i32 noundef %73, ptr noundef nonnull %4, ptr noundef nonnull %5) #13
  %.not = icmp eq ptr %74, null
  br i1 %.not, label %86, label %75

75:                                               ; preds = %index2adr.exit
  %76 = getelementptr inbounds nuw i8, ptr %0, i64 40
  %77 = load ptr, ptr %76, align 8, !tbaa !14
  %78 = load ptr, ptr %4, align 8, !tbaa !51
  %79 = load i64, ptr %78, align 8, !tbaa !17
  store i64 %79, ptr %77, align 8, !tbaa !17
  %80 = load ptr, ptr %76, align 8, !tbaa !14
  %81 = getelementptr inbounds nuw i8, ptr %80, i64 8
  store ptr %81, ptr %76, align 8, !tbaa !14
  %82 = getelementptr inbounds nuw i8, ptr %0, i64 48
  %83 = load i64, ptr %82, align 8, !tbaa !16
  %84 = inttoptr i64 %83 to ptr
  %.not9 = icmp ult ptr %81, %84
  br i1 %.not9, label %86, label %85

85:                                               ; preds = %75
  call void @lj_state_growstack1(ptr noundef nonnull %0) #13
  br label %86

86:                                               ; preds = %75, %85, %index2adr.exit
  call void @llvm.lifetime.end.p0(i64 8, ptr nonnull %5) #13
  call void @llvm.lifetime.end.p0(i64 8, ptr nonnull %4) #13
  ret ptr %74
}